; ModuleID = '32/1414.c'
source_filename = "32/1414.c"
target datalayout = "e-m:e-p270:32:32-p271:32:32-p272:64:64-i64:64-f80:128-n8:16:32:64-S128"
target triple = "x86_64-pc-linux-gnu"

@.str = private unnamed_addr constant [3 x i8] c"%d\00", align 1
@.str.1 = private unnamed_addr constant [5 x i8] c"%s%s\00", align 1
@.str.2 = private unnamed_addr constant [2 x i8] c"\0A\00", align 1

; Function Attrs: noinline nounwind uwtable
define dso_local i32 @main() #0 {
  %1 = alloca i32, align 4
  %2 = alloca [201 x i8], align 16
  %3 = alloca [201 x i8], align 16
  %4 = alloca i32, align 4
  %5 = alloca i32, align 4
  %6 = alloca [201 x i32], align 16
  %7 = alloca [201 x i32], align 16
  %8 = alloca [201 x i32], align 16
  %9 = alloca i32, align 4
  %10 = alloca i32, align 4
  %11 = alloca i32, align 4
  store i32 0, i32* %1, align 4
  %12 = call i32 (i8*, ...) @__isoc99_scanf(i8* getelementptr inbounds ([3 x i8], [3 x i8]* @.str, i64 0, i64 0), i32* %5)
  br label %13

13:                                               ; preds = %141, %0
  %14 = load i32, i32* %5, align 4
  %15 = add nsw i32 %14, -1
  store i32 %15, i32* %5, align 4
  %16 = icmp ne i32 %14, 0
  br i1 %16, label %17, label %143

17:                                               ; preds = %13
  %18 = getelementptr inbounds [201 x i8], [201 x i8]* %2, i64 0, i64 0
  %19 = getelementptr inbounds [201 x i8], [201 x i8]* %3, i64 0, i64 0
  %20 = call i32 (i8*, ...) @__isoc99_scanf(i8* getelementptr inbounds ([5 x i8], [5 x i8]* @.str.1, i64 0, i64 0), i8* %18, i8* %19)
  %21 = getelementptr inbounds [201 x i32], [201 x i32]* %6, i64 0, i64 0
  %22 = bitcast i32* %21 to i8*
  call void @llvm.memset.p0i8.i64(i8* align 16 %22, i8 0, i64 804, i1 false)
  %23 = getelementptr inbounds [201 x i32], [201 x i32]* %7, i64 0, i64 0
  %24 = bitcast i32* %23 to i8*
  call void @llvm.memset.p0i8.i64(i8* align 16 %24, i8 0, i64 804, i1 false)
  %25 = getelementptr inbounds [201 x i32], [201 x i32]* %8, i64 0, i64 0
  %26 = bitcast i32* %25 to i8*
  call void @llvm.memset.p0i8.i64(i8* align 16 %26, i8 0, i64 804, i1 false)
  %27 = getelementptr inbounds [201 x i8], [201 x i8]* %2, i64 0, i64 0
  %28 = call i64 @strlen(i8* %27) #4
  %29 = trunc i64 %28 to i32
  store i32 %29, i32* %9, align 4
  %30 = getelementptr inbounds [201 x i8], [201 x i8]* %3, i64 0, i64 0
  %31 = call i64 @strlen(i8* %30) #4
  %32 = trunc i64 %31 to i32
  store i32 %32, i32* %10, align 4
  store i32 0, i32* %4, align 4
  br label %33

33:                                               ; preds = %50, %17
  %34 = load i32, i32* %4, align 4
  %35 = load i32, i32* %9, align 4
  %36 = icmp slt i32 %34, %35
  br i1 %36, label %37, label %53

37:                                               ; preds = %33
  %38 = load i32, i32* %9, align 4
  %39 = sub nsw i32 %38, 1
  %40 = load i32, i32* %4, align 4
  %41 = sub nsw i32 %39, %40
  %42 = sext i32 %41 to i64
  %43 = getelementptr inbounds [201 x i8], [201 x i8]* %2, i64 0, i64 %42
  %44 = load i8, i8* %43, align 1
  %45 = sext i8 %44 to i32
  %46 = sub nsw i32 %45, 48
  %47 = load i32, i32* %4, align 4
  %48 = sext i32 %47 to i64
  %49 = getelementptr inbounds [201 x i32], [201 x i32]* %6, i64 0, i64 %48
  store i32 %46, i32* %49, align 4
  br label %50

50:                                               ; preds = %37
  %51 = load i32, i32* %4, align 4
  %52 = add nsw i32 %51, 1
  store i32 %52, i32* %4, align 4
  br label %33

53:                                               ; preds = %33
  store i32 0, i32* %4, align 4
  br label %54

54:                                               ; preds = %71, %53
  %55 = load i32, i32* %4, align 4
  %56 = load i32, i32* %10, align 4
  %57 = icmp slt i32 %55, %56
  br i1 %57, label %58, label %74

58:                                               ; preds = %54
  %59 = load i32, i32* %10, align 4
  %60 = sub nsw i32 %59, 1
  %61 = load i32, i32* %4, align 4
  %62 = sub nsw i32 %60, %61
  %63 = sext i32 %62 to i64
  %64 = getelementptr inbounds [201 x i8], [201 x i8]* %3, i64 0, i64 %63
  %65 = load i8, i8* %64, align 1
  %66 = sext i8 %65 to i32
  %67 = sub nsw i32 %66, 48
  %68 = load i32, i32* %4, align 4
  %69 = sext i32 %68 to i64
  %70 = getelementptr inbounds [201 x i32], [201 x i32]* %7, i64 0, i64 %69
  store i32 %67, i32* %70, align 4
  br label %71

71:                                               ; preds = %58
  %72 = load i32, i32* %4, align 4
  %73 = add nsw i32 %72, 1
  store i32 %73, i32* %4, align 4
  br label %54

74:                                               ; preds = %54
  %75 = load i32, i32* %9, align 4
  store i32 %75, i32* %11, align 4
  store i32 0, i32* %4, align 4
  br label %76

76:                                               ; preds = %113, %74
  %77 = load i32, i32* %4, align 4
  %78 = load i32, i32* %11, align 4
  %79 = icmp slt i32 %77, %78
  br i1 %79, label %80, label %116

80:                                               ; preds = %76
  %81 = load i32, i32* %4, align 4
  %82 = sext i32 %81 to i64
  %83 = getelementptr inbounds [201 x i32], [201 x i32]* %6, i64 0, i64 %82
  %84 = load i32, i32* %83, align 4
  %85 = load i32, i32* %4, align 4
  %86 = sext i32 %85 to i64
  %87 = getelementptr inbounds [201 x i32], [201 x i32]* %7, i64 0, i64 %86
  %88 = load i32, i32* %87, align 4
  %89 = sub nsw i32 %84, %88
  %90 = load i32, i32* %4, align 4
  %91 = sext i32 %90 to i64
  %92 = getelementptr inbounds [201 x i32], [201 x i32]* %8, i64 0, i64 %91
  %93 = load i32, i32* %92, align 4
  %94 = add nsw i32 %93, %89
  store i32 %94, i32* %92, align 4
  %95 = load i32, i32* %4, align 4
  %96 = sext i32 %95 to i64
  %97 = getelementptr inbounds [201 x i32], [201 x i32]* %8, i64 0, i64 %96
  %98 = load i32, i32* %97, align 4
  %99 = icmp slt i32 %98, 0
  br i1 %99, label %100, label %112

100:                                              ; preds = %80
  %101 = load i32, i32* %4, align 4
  %102 = add nsw i32 %101, 1
  %103 = sext i32 %102 to i64
  %104 = getelementptr inbounds [201 x i32], [201 x i32]* %8, i64 0, i64 %103
  %105 = load i32, i32* %104, align 4
  %106 = add nsw i32 %105, -1
  store i32 %106, i32* %104, align 4
  %107 = load i32, i32* %4, align 4
  %108 = sext i32 %107 to i64
  %109 = getelementptr inbounds [201 x i32], [201 x i32]* %8, i64 0, i64 %108
  %110 = load i32, i32* %109, align 4
  %111 = add nsw i32 %110, 10
  store i32 %111, i32* %109, align 4
  br label %112

112:                                              ; preds = %100, %80
  br label %113

113:                                              ; preds = %112
  %114 = load i32, i32* %4, align 4
  %115 = add nsw i32 %114, 1
  store i32 %115, i32* %4, align 4
  br label %76

116:                                              ; preds = %76
  %117 = load i32, i32* %11, align 4
  %118 = sub nsw i32 %117, 1
  %119 = sext i32 %118 to i64
  %120 = getelementptr inbounds [201 x i32], [201 x i32]* %8, i64 0, i64 %119
  %121 = load i32, i32* %120, align 4
  %122 = icmp eq i32 %121, 0
  br i1 %122, label %123, label %126

123:                                              ; preds = %116
  %124 = load i32, i32* %11, align 4
  %125 = add nsw i32 %124, -1
  store i32 %125, i32* %11, align 4
  br label %126

126:                                              ; preds = %123, %116
  %127 = load i32, i32* %11, align 4
  %128 = sub nsw i32 %127, 1
  store i32 %128, i32* %4, align 4
  br label %129

129:                                              ; preds = %138, %126
  %130 = load i32, i32* %4, align 4
  %131 = icmp sge i32 %130, 0
  br i1 %131, label %132, label %141

132:                                              ; preds = %129
  %133 = load i32, i32* %4, align 4
  %134 = sext i32 %133 to i64
  %135 = getelementptr inbounds [201 x i32], [201 x i32]* %8, i64 0, i64 %134
  %136 = load i32, i32* %135, align 4
  %137 = call i32 (i8*, ...) @printf(i8* getelementptr inbounds ([3 x i8], [3 x i8]* @.str, i64 0, i64 0), i32 %136)
  br label %138

138:                                              ; preds = %132
  %139 = load i32, i32* %4, align 4
  %140 = add nsw i32 %139, -1
  store i32 %140, i32* %4, align 4
  br label %129

141:                                              ; preds = %129
  %142 = call i32 (i8*, ...) @printf(i8* getelementptr inbounds ([2 x i8], [2 x i8]* @.str.2, i64 0, i64 0))
  br label %13

143:                                              ; preds = %13
  ret i32 0
}

declare dso_local i32 @__isoc99_scanf(i8*, ...) #1

; Function Attrs: argmemonly nounwind willreturn
declare void @llvm.memset.p0i8.i64(i8* nocapture writeonly, i8, i64, i1 immarg) #2

; Function Attrs: nounwind readonly
declare dso_local i64 @strlen(i8*) #3

declare dso_local i32 @printf(i8*, ...) #1


!llvm.module.flags = !{!0}
!llvm.ident = !{!1}

!0 = !{i32 1, !"wchar_size", i32 4}
!1 = !{!"clang version 10.0.0-4ubuntu1 "}
