; ModuleID = 'source-C-CXX/31/1414.c'
source_filename = "source-C-CXX/31/1414.c"
target datalayout = "e-m:e-p270:32:32-p271:32:32-p272:64:64-i64:64-f80:128-n8:16:32:64-S128"
target triple = "x86_64-pc-linux-gnu"

@.str = private unnamed_addr constant [3 x i8] c"%d\00", align 1
@.str.1 = private unnamed_addr constant [5 x i8] c"%s%s\00", align 1

; Function Attrs: nofree nounwind sspstrong uwtable
define dso_local i32 @main() local_unnamed_addr #0 {
  %1 = alloca [201 x i8], align 16
  %2 = alloca [201 x i8], align 16
  %3 = alloca i32, align 4
  %4 = alloca [201 x i32], align 16
  %5 = alloca [201 x i32], align 16
  %6 = alloca [201 x i32], align 16
  %7 = getelementptr inbounds [201 x i8], [201 x i8]* %1, i64 0, i64 0
  call void @llvm.lifetime.start.p0i8(i64 201, i8* nonnull %7) #6
  %8 = getelementptr inbounds [201 x i8], [201 x i8]* %2, i64 0, i64 0
  call void @llvm.lifetime.start.p0i8(i64 201, i8* nonnull %8) #6
  %9 = bitcast i32* %3 to i8*
  call void @llvm.lifetime.start.p0i8(i64 4, i8* nonnull %9) #6
  %10 = bitcast [201 x i32]* %4 to i8*
  call void @llvm.lifetime.start.p0i8(i64 804, i8* nonnull %10) #6
  %11 = bitcast [201 x i32]* %5 to i8*
  call void @llvm.lifetime.start.p0i8(i64 804, i8* nonnull %11) #6
  %12 = bitcast [201 x i32]* %6 to i8*
  call void @llvm.lifetime.start.p0i8(i64 804, i8* nonnull %12) #6
  %13 = call i32 (i8*, ...) @__isoc99_scanf(i8* getelementptr inbounds ([3 x i8], [3 x i8]* @.str, i64 0, i64 0), i32* nonnull %3)
  %14 = load i32, i32* %3, align 4, !tbaa !5
  %15 = add nsw i32 %14, -1
  store i32 %15, i32* %3, align 4, !tbaa !5
  %16 = icmp eq i32 %14, 0
  br i1 %16, label %249, label %17

17:                                               ; preds = %0, %244
  %18 = call i32 (i8*, ...) @__isoc99_scanf(i8* getelementptr inbounds ([5 x i8], [5 x i8]* @.str.1, i64 0, i64 0), i8* nonnull %7, i8* nonnull %8)
  call void @llvm.memset.p0i8.i64(i8* noundef nonnull align 16 dereferenceable(804) %10, i8 0, i64 804, i1 false)
  call void @llvm.memset.p0i8.i64(i8* noundef nonnull align 16 dereferenceable(804) %11, i8 0, i64 804, i1 false)
  call void @llvm.memset.p0i8.i64(i8* noundef nonnull align 16 dereferenceable(804) %12, i8 0, i64 804, i1 false)
  %19 = call i64 @strlen(i8* noundef nonnull %7) #7
  %20 = trunc i64 %19 to i32
  %21 = call i64 @strlen(i8* noundef nonnull %8) #7
  %22 = trunc i64 %21 to i32
  %23 = icmp sgt i32 %20, 0
  br i1 %23, label %24, label %88

24:                                               ; preds = %17
  %25 = and i64 %19, 4294967295
  %26 = icmp ult i64 %25, 8
  br i1 %26, label %66, label %27

27:                                               ; preds = %24
  %28 = add nsw i64 %25, -1
  %29 = add i32 %20, -1
  %30 = trunc i64 %28 to i32
  %31 = sub i32 %29, %30
  %32 = icmp sgt i32 %31, %29
  %33 = icmp ugt i64 %28, 4294967295
  %34 = or i1 %32, %33
  br i1 %34, label %66, label %35

35:                                               ; preds = %27
  %36 = and i64 %19, 7
  %37 = sub nsw i64 %25, %36
  %38 = trunc i64 %37 to i32
  br label %39

39:                                               ; preds = %39, %35
  %40 = phi i64 [ 0, %35 ], [ %62, %39 ]
  %41 = xor i64 %40, -1
  %42 = add i64 %19, %41
  %43 = shl i64 %42, 32
  %44 = ashr exact i64 %43, 32
  %45 = getelementptr inbounds [201 x i8], [201 x i8]* %1, i64 0, i64 %44
  %46 = getelementptr inbounds i8, i8* %45, i64 -3
  %47 = bitcast i8* %46 to <4 x i8>*
  %48 = load <4 x i8>, <4 x i8>* %47, align 1, !tbaa !9
  %49 = shufflevector <4 x i8> %48, <4 x i8> poison, <4 x i32> <i32 3, i32 2, i32 1, i32 0>
  %50 = getelementptr inbounds i8, i8* %45, i64 -7
  %51 = bitcast i8* %50 to <4 x i8>*
  %52 = load <4 x i8>, <4 x i8>* %51, align 1, !tbaa !9
  %53 = shufflevector <4 x i8> %52, <4 x i8> poison, <4 x i32> <i32 3, i32 2, i32 1, i32 0>
  %54 = sext <4 x i8> %49 to <4 x i32>
  %55 = sext <4 x i8> %53 to <4 x i32>
  %56 = add nsw <4 x i32> %54, <i32 -48, i32 -48, i32 -48, i32 -48>
  %57 = add nsw <4 x i32> %55, <i32 -48, i32 -48, i32 -48, i32 -48>
  %58 = getelementptr inbounds [201 x i32], [201 x i32]* %4, i64 0, i64 %40
  %59 = bitcast i32* %58 to <4 x i32>*
  store <4 x i32> %56, <4 x i32>* %59, align 16, !tbaa !5
  %60 = getelementptr inbounds i32, i32* %58, i64 4
  %61 = bitcast i32* %60 to <4 x i32>*
  store <4 x i32> %57, <4 x i32>* %61, align 16, !tbaa !5
  %62 = add nuw i64 %40, 8
  %63 = icmp eq i64 %62, %37
  br i1 %63, label %64, label %39, !llvm.loop !10

64:                                               ; preds = %39
  %65 = icmp eq i64 %36, 0
  br i1 %65, label %88, label %66

66:                                               ; preds = %27, %24, %64
  %67 = phi i64 [ 0, %27 ], [ 0, %24 ], [ %37, %64 ]
  %68 = phi i32 [ 0, %27 ], [ 0, %24 ], [ %38, %64 ]
  %69 = sub i64 %19, %67
  %70 = add nsw i64 %67, 1
  %71 = and i64 %69, 1
  %72 = icmp eq i64 %71, 0
  br i1 %72, label %84, label %73

73:                                               ; preds = %66
  %74 = xor i32 %68, -1
  %75 = add i32 %74, %20
  %76 = sext i32 %75 to i64
  %77 = getelementptr inbounds [201 x i8], [201 x i8]* %1, i64 0, i64 %76
  %78 = load i8, i8* %77, align 1, !tbaa !9
  %79 = sext i8 %78 to i32
  %80 = add nsw i32 %79, -48
  %81 = getelementptr inbounds [201 x i32], [201 x i32]* %4, i64 0, i64 %67
  store i32 %80, i32* %81, align 4, !tbaa !5
  %82 = add nuw nsw i64 %67, 1
  %83 = add nuw nsw i32 %68, 1
  br label %84

84:                                               ; preds = %73, %66
  %85 = phi i64 [ %82, %73 ], [ %67, %66 ]
  %86 = phi i32 [ %83, %73 ], [ %68, %66 ]
  %87 = icmp eq i64 %25, %70
  br i1 %87, label %88, label %154

88:                                               ; preds = %84, %154, %64, %17
  %89 = icmp sgt i32 %22, 0
  br i1 %89, label %90, label %177

90:                                               ; preds = %88
  %91 = and i64 %21, 4294967295
  %92 = icmp ult i64 %91, 8
  br i1 %92, label %132, label %93

93:                                               ; preds = %90
  %94 = add nsw i64 %91, -1
  %95 = add i32 %22, -1
  %96 = trunc i64 %94 to i32
  %97 = sub i32 %95, %96
  %98 = icmp sgt i32 %97, %95
  %99 = icmp ugt i64 %94, 4294967295
  %100 = or i1 %98, %99
  br i1 %100, label %132, label %101

101:                                              ; preds = %93
  %102 = and i64 %21, 7
  %103 = sub nsw i64 %91, %102
  %104 = trunc i64 %103 to i32
  br label %105

105:                                              ; preds = %105, %101
  %106 = phi i64 [ 0, %101 ], [ %128, %105 ]
  %107 = xor i64 %106, -1
  %108 = add i64 %21, %107
  %109 = shl i64 %108, 32
  %110 = ashr exact i64 %109, 32
  %111 = getelementptr inbounds [201 x i8], [201 x i8]* %2, i64 0, i64 %110
  %112 = getelementptr inbounds i8, i8* %111, i64 -3
  %113 = bitcast i8* %112 to <4 x i8>*
  %114 = load <4 x i8>, <4 x i8>* %113, align 1, !tbaa !9
  %115 = shufflevector <4 x i8> %114, <4 x i8> poison, <4 x i32> <i32 3, i32 2, i32 1, i32 0>
  %116 = getelementptr inbounds i8, i8* %111, i64 -7
  %117 = bitcast i8* %116 to <4 x i8>*
  %118 = load <4 x i8>, <4 x i8>* %117, align 1, !tbaa !9
  %119 = shufflevector <4 x i8> %118, <4 x i8> poison, <4 x i32> <i32 3, i32 2, i32 1, i32 0>
  %120 = sext <4 x i8> %115 to <4 x i32>
  %121 = sext <4 x i8> %119 to <4 x i32>
  %122 = add nsw <4 x i32> %120, <i32 -48, i32 -48, i32 -48, i32 -48>
  %123 = add nsw <4 x i32> %121, <i32 -48, i32 -48, i32 -48, i32 -48>
  %124 = getelementptr inbounds [201 x i32], [201 x i32]* %5, i64 0, i64 %106
  %125 = bitcast i32* %124 to <4 x i32>*
  store <4 x i32> %122, <4 x i32>* %125, align 16, !tbaa !5
  %126 = getelementptr inbounds i32, i32* %124, i64 4
  %127 = bitcast i32* %126 to <4 x i32>*
  store <4 x i32> %123, <4 x i32>* %127, align 16, !tbaa !5
  %128 = add nuw i64 %106, 8
  %129 = icmp eq i64 %128, %103
  br i1 %129, label %130, label %105, !llvm.loop !13

130:                                              ; preds = %105
  %131 = icmp eq i64 %102, 0
  br i1 %131, label %177, label %132

132:                                              ; preds = %93, %90, %130
  %133 = phi i64 [ 0, %93 ], [ 0, %90 ], [ %103, %130 ]
  %134 = phi i32 [ 0, %93 ], [ 0, %90 ], [ %104, %130 ]
  %135 = sub i64 %21, %133
  %136 = add nsw i64 %133, 1
  %137 = and i64 %135, 1
  %138 = icmp eq i64 %137, 0
  br i1 %138, label %150, label %139

139:                                              ; preds = %132
  %140 = xor i32 %134, -1
  %141 = add i32 %140, %22
  %142 = sext i32 %141 to i64
  %143 = getelementptr inbounds [201 x i8], [201 x i8]* %2, i64 0, i64 %142
  %144 = load i8, i8* %143, align 1, !tbaa !9
  %145 = sext i8 %144 to i32
  %146 = add nsw i32 %145, -48
  %147 = getelementptr inbounds [201 x i32], [201 x i32]* %5, i64 0, i64 %133
  store i32 %146, i32* %147, align 4, !tbaa !5
  %148 = add nuw nsw i64 %133, 1
  %149 = add nuw nsw i32 %134, 1
  br label %150

150:                                              ; preds = %139, %132
  %151 = phi i64 [ %148, %139 ], [ %133, %132 ]
  %152 = phi i32 [ %149, %139 ], [ %134, %132 ]
  %153 = icmp eq i64 %91, %136
  br i1 %153, label %177, label %180

154:                                              ; preds = %84, %154
  %155 = phi i64 [ %174, %154 ], [ %85, %84 ]
  %156 = phi i32 [ %175, %154 ], [ %86, %84 ]
  %157 = xor i32 %156, -1
  %158 = add i32 %157, %20
  %159 = sext i32 %158 to i64
  %160 = getelementptr inbounds [201 x i8], [201 x i8]* %1, i64 0, i64 %159
  %161 = load i8, i8* %160, align 1, !tbaa !9
  %162 = sext i8 %161 to i32
  %163 = add nsw i32 %162, -48
  %164 = getelementptr inbounds [201 x i32], [201 x i32]* %4, i64 0, i64 %155
  store i32 %163, i32* %164, align 4, !tbaa !5
  %165 = add nuw nsw i64 %155, 1
  %166 = sub i32 -2, %156
  %167 = add i32 %166, %20
  %168 = sext i32 %167 to i64
  %169 = getelementptr inbounds [201 x i8], [201 x i8]* %1, i64 0, i64 %168
  %170 = load i8, i8* %169, align 1, !tbaa !9
  %171 = sext i8 %170 to i32
  %172 = add nsw i32 %171, -48
  %173 = getelementptr inbounds [201 x i32], [201 x i32]* %4, i64 0, i64 %165
  store i32 %172, i32* %173, align 4, !tbaa !5
  %174 = add nuw nsw i64 %155, 2
  %175 = add nuw nsw i32 %156, 2
  %176 = icmp eq i64 %174, %25
  br i1 %176, label %88, label %154, !llvm.loop !14

177:                                              ; preds = %150, %180, %130, %88
  br i1 %23, label %178, label %222

178:                                              ; preds = %177
  %179 = and i64 %19, 4294967295
  br label %203

180:                                              ; preds = %150, %180
  %181 = phi i64 [ %200, %180 ], [ %151, %150 ]
  %182 = phi i32 [ %201, %180 ], [ %152, %150 ]
  %183 = xor i32 %182, -1
  %184 = add i32 %183, %22
  %185 = sext i32 %184 to i64
  %186 = getelementptr inbounds [201 x i8], [201 x i8]* %2, i64 0, i64 %185
  %187 = load i8, i8* %186, align 1, !tbaa !9
  %188 = sext i8 %187 to i32
  %189 = add nsw i32 %188, -48
  %190 = getelementptr inbounds [201 x i32], [201 x i32]* %5, i64 0, i64 %181
  store i32 %189, i32* %190, align 4, !tbaa !5
  %191 = add nuw nsw i64 %181, 1
  %192 = sub i32 -2, %182
  %193 = add i32 %192, %22
  %194 = sext i32 %193 to i64
  %195 = getelementptr inbounds [201 x i8], [201 x i8]* %2, i64 0, i64 %194
  %196 = load i8, i8* %195, align 1, !tbaa !9
  %197 = sext i8 %196 to i32
  %198 = add nsw i32 %197, -48
  %199 = getelementptr inbounds [201 x i32], [201 x i32]* %5, i64 0, i64 %191
  store i32 %198, i32* %199, align 4, !tbaa !5
  %200 = add nuw nsw i64 %181, 2
  %201 = add nuw nsw i32 %182, 2
  %202 = icmp eq i64 %200, %91
  br i1 %202, label %177, label %180, !llvm.loop !15

203:                                              ; preds = %178, %220
  %204 = phi i64 [ 0, %178 ], [ %214, %220 ]
  %205 = getelementptr inbounds [201 x i32], [201 x i32]* %4, i64 0, i64 %204
  %206 = load i32, i32* %205, align 4, !tbaa !5
  %207 = getelementptr inbounds [201 x i32], [201 x i32]* %5, i64 0, i64 %204
  %208 = load i32, i32* %207, align 4, !tbaa !5
  %209 = sub nsw i32 %206, %208
  %210 = getelementptr inbounds [201 x i32], [201 x i32]* %6, i64 0, i64 %204
  %211 = load i32, i32* %210, align 4, !tbaa !5
  %212 = add nsw i32 %211, %209
  store i32 %212, i32* %210, align 4, !tbaa !5
  %213 = icmp slt i32 %212, 0
  %214 = add nuw nsw i64 %204, 1
  br i1 %213, label %215, label %220

215:                                              ; preds = %203
  %216 = getelementptr inbounds [201 x i32], [201 x i32]* %6, i64 0, i64 %214
  %217 = load i32, i32* %216, align 4, !tbaa !5
  %218 = add nsw i32 %217, -1
  store i32 %218, i32* %216, align 4, !tbaa !5
  %219 = add nsw i32 %212, 10
  store i32 %219, i32* %210, align 4, !tbaa !5
  br label %220

220:                                              ; preds = %203, %215
  %221 = icmp eq i64 %214, %179
  br i1 %221, label %222, label %203, !llvm.loop !16

222:                                              ; preds = %220, %177
  %223 = shl i64 %19, 32
  %224 = add i64 %223, -4294967296
  %225 = ashr exact i64 %224, 32
  %226 = getelementptr inbounds [201 x i32], [201 x i32]* %6, i64 0, i64 %225
  %227 = load i32, i32* %226, align 4, !tbaa !5
  %228 = icmp eq i32 %227, 0
  %229 = sext i1 %228 to i32
  %230 = add i32 %229, %20
  %231 = icmp sgt i32 %230, 0
  br i1 %231, label %232, label %244

232:                                              ; preds = %222
  %233 = zext i32 %230 to i64
  br label %234

234:                                              ; preds = %232, %234
  %235 = phi i64 [ %233, %232 ], [ %243, %234 ]
  %236 = trunc i64 %235 to i32
  %237 = add i64 %235, 4294967295
  %238 = and i64 %237, 4294967295
  %239 = getelementptr inbounds [201 x i32], [201 x i32]* %6, i64 0, i64 %238
  %240 = load i32, i32* %239, align 4, !tbaa !5
  %241 = call i32 (i8*, ...) @printf(i8* nonnull dereferenceable(1) getelementptr inbounds ([3 x i8], [3 x i8]* @.str, i64 0, i64 0), i32 %240)
  %242 = icmp sgt i32 %236, 1
  %243 = add nsw i64 %235, -1
  br i1 %242, label %234, label %244, !llvm.loop !17

244:                                              ; preds = %234, %222
  %245 = call i32 @putchar(i32 10)
  %246 = load i32, i32* %3, align 4, !tbaa !5
  %247 = add nsw i32 %246, -1
  store i32 %247, i32* %3, align 4, !tbaa !5
  %248 = icmp eq i32 %246, 0
  br i1 %248, label %249, label %17, !llvm.loop !18

249:                                              ; preds = %244, %0
  call void @llvm.lifetime.end.p0i8(i64 804, i8* nonnull %12) #6
  call void @llvm.lifetime.end.p0i8(i64 804, i8* nonnull %11) #6
  call void @llvm.lifetime.end.p0i8(i64 804, i8* nonnull %10) #6
  call void @llvm.lifetime.end.p0i8(i64 4, i8* nonnull %9) #6
  call void @llvm.lifetime.end.p0i8(i64 201, i8* nonnull %8) #6
  call void @llvm.lifetime.end.p0i8(i64 201, i8* nonnull %7) #6
  ret i32 0
}

; Function Attrs: argmemonly mustprogress nofree nosync nounwind willreturn
declare void @llvm.lifetime.start.p0i8(i64 immarg, i8* nocapture) #1

; Function Attrs: nofree nounwind
declare noundef i32 @__isoc99_scanf(i8* nocapture noundef readonly, ...) local_unnamed_addr #2

; Function Attrs: argmemonly mustprogress nofree nounwind willreturn writeonly
declare void @llvm.memset.p0i8.i64(i8* nocapture writeonly, i8, i64, i1 immarg) #3

; Function Attrs: argmemonly mustprogress nofree nounwind readonly willreturn
declare i64 @strlen(i8* nocapture) local_unnamed_addr #4

; Function Attrs: nofree nounwind
declare noundef i32 @printf(i8* nocapture noundef readonly, ...) local_unnamed_addr #2

; Function Attrs: argmemonly mustprogress nofree nosync nounwind willreturn
declare void @llvm.lifetime.end.p0i8(i64 immarg, i8* nocapture) #1

; Function Attrs: nofree nounwind
declare noundef i32 @putchar(i32 noundef) local_unnamed_addr #5


!llvm.module.flags = !{!0, !1, !2, !3}
!llvm.ident = !{!4}

!0 = !{i32 1, !"wchar_size", i32 4}
!1 = !{i32 7, !"PIC Level", i32 2}
!2 = !{i32 7, !"PIE Level", i32 2}
!3 = !{i32 7, !"uwtable", i32 1}
!4 = !{!"clang version 13.0.0"}
!5 = !{!6, !6, i64 0}
!6 = !{!"int", !7, i64 0}
!7 = !{!"omnipotent char", !8, i64 0}
!8 = !{!"Simple C/C++ TBAA"}
!9 = !{!7, !7, i64 0}
!10 = distinct !{!10, !11, !12}
!11 = !{!"llvm.loop.mustprogress"}
!12 = !{!"llvm.loop.isvectorized", i32 1}
!13 = distinct !{!13, !11, !12}
!14 = distinct !{!14, !11, !12}
!15 = distinct !{!15, !11, !12}
!16 = distinct !{!16, !11}
!17 = distinct !{!17, !11}
!18 = distinct !{!18, !11}
